; ModuleID = '17/766.c'
source_filename = "17/766.c"
target datalayout = "e-m:e-p270:32:32-p271:32:32-p272:64:64-i64:64-f80:128-n8:16:32:64-S128"
target triple = "x86_64-pc-linux-gnu"

@.str = private unnamed_addr constant [3 x i8] c"%d\00", align 1
@.str.1 = private unnamed_addr constant [3 x i8] c"%s\00", align 1
@input = common dso_local global [150 x i8] zeroinitializer, align 16
@output = common dso_local global [150 x i8] zeroinitializer, align 16
@.str.2 = private unnamed_addr constant [7 x i8] c"%s\0A%s\0A\00", align 1

; Function Attrs: noinline nounwind uwtable
define dso_local i32 @main() #0 {
  %1 = alloca i32, align 4
  %2 = alloca i32, align 4
  %3 = alloca i32, align 4
  %4 = alloca i32, align 4
  %5 = alloca i32, align 4
  %6 = alloca i32, align 4
  store i32 0, i32* %1, align 4
  %7 = call i32 (i8*, ...) @__isoc99_scanf(i8* getelementptr inbounds ([3 x i8], [3 x i8]* @.str, i64 0, i64 0), i32* %2)
  store i32 0, i32* %3, align 4
  br label %8

8:                                                ; preds = %96, %0
  %9 = load i32, i32* %3, align 4
  %10 = load i32, i32* %2, align 4
  %11 = icmp slt i32 %9, %10
  br i1 %11, label %12, label %99

12:                                               ; preds = %8
  %13 = call i32 (i8*, ...) @__isoc99_scanf(i8* getelementptr inbounds ([3 x i8], [3 x i8]* @.str.1, i64 0, i64 0), i8* getelementptr inbounds ([150 x i8], [150 x i8]* @input, i64 0, i64 0))
  call void @llvm.memset.p0i8.i64(i8* align 16 getelementptr inbounds ([150 x i8], [150 x i8]* @output, i64 0, i64 0), i8 0, i64 150, i1 false)
  store i32 0, i32* %4, align 4
  store i32 0, i32* %5, align 4
  store i32 0, i32* %6, align 4
  br label %14

14:                                               ; preds = %52, %12
  %15 = load i32, i32* %6, align 4
  %16 = sext i32 %15 to i64
  %17 = call i64 @strlen(i8* getelementptr inbounds ([150 x i8], [150 x i8]* @input, i64 0, i64 0)) #4
  %18 = icmp ult i64 %16, %17
  br i1 %18, label %19, label %55

19:                                               ; preds = %14
  %20 = load i32, i32* %6, align 4
  %21 = sext i32 %20 to i64
  %22 = getelementptr inbounds [150 x i8], [150 x i8]* @output, i64 0, i64 %21
  store i8 32, i8* %22, align 1
  %23 = load i32, i32* %6, align 4
  %24 = sext i32 %23 to i64
  %25 = getelementptr inbounds [150 x i8], [150 x i8]* @input, i64 0, i64 %24
  %26 = load i8, i8* %25, align 1
  %27 = sext i8 %26 to i32
  %28 = icmp eq i32 %27, 41
  br i1 %28, label %29, label %40

29:                                               ; preds = %19
  %30 = load i32, i32* %4, align 4
  %31 = icmp sle i32 %30, 0
  br i1 %31, label %32, label %36

32:                                               ; preds = %29
  %33 = load i32, i32* %6, align 4
  %34 = sext i32 %33 to i64
  %35 = getelementptr inbounds [150 x i8], [150 x i8]* @output, i64 0, i64 %34
  store i8 63, i8* %35, align 1
  br label %39

36:                                               ; preds = %29
  %37 = load i32, i32* %4, align 4
  %38 = add nsw i32 %37, -1
  store i32 %38, i32* %4, align 4
  br label %39

39:                                               ; preds = %36, %32
  br label %51

40:                                               ; preds = %19
  %41 = load i32, i32* %6, align 4
  %42 = sext i32 %41 to i64
  %43 = getelementptr inbounds [150 x i8], [150 x i8]* @input, i64 0, i64 %42
  %44 = load i8, i8* %43, align 1
  %45 = sext i8 %44 to i32
  %46 = icmp eq i32 %45, 40
  br i1 %46, label %47, label %50

47:                                               ; preds = %40
  %48 = load i32, i32* %4, align 4
  %49 = add nsw i32 %48, 1
  store i32 %49, i32* %4, align 4
  br label %50

50:                                               ; preds = %47, %40
  br label %51

51:                                               ; preds = %50, %39
  br label %52

52:                                               ; preds = %51
  %53 = load i32, i32* %6, align 4
  %54 = add nsw i32 %53, 1
  store i32 %54, i32* %6, align 4
  br label %14

55:                                               ; preds = %14
  %56 = call i64 @strlen(i8* getelementptr inbounds ([150 x i8], [150 x i8]* @input, i64 0, i64 0)) #4
  %57 = trunc i64 %56 to i32
  store i32 %57, i32* %6, align 4
  br label %58

58:                                               ; preds = %91, %55
  %59 = load i32, i32* %6, align 4
  %60 = icmp sge i32 %59, 0
  br i1 %60, label %61, label %94

61:                                               ; preds = %58
  %62 = load i32, i32* %6, align 4
  %63 = sext i32 %62 to i64
  %64 = getelementptr inbounds [150 x i8], [150 x i8]* @input, i64 0, i64 %63
  %65 = load i8, i8* %64, align 1
  %66 = sext i8 %65 to i32
  %67 = icmp eq i32 %66, 40
  br i1 %67, label %68, label %79

68:                                               ; preds = %61
  %69 = load i32, i32* %5, align 4
  %70 = icmp sle i32 %69, 0
  br i1 %70, label %71, label %75

71:                                               ; preds = %68
  %72 = load i32, i32* %6, align 4
  %73 = sext i32 %72 to i64
  %74 = getelementptr inbounds [150 x i8], [150 x i8]* @output, i64 0, i64 %73
  store i8 36, i8* %74, align 1
  br label %78

75:                                               ; preds = %68
  %76 = load i32, i32* %5, align 4
  %77 = add nsw i32 %76, -1
  store i32 %77, i32* %5, align 4
  br label %78

78:                                               ; preds = %75, %71
  br label %90

79:                                               ; preds = %61
  %80 = load i32, i32* %6, align 4
  %81 = sext i32 %80 to i64
  %82 = getelementptr inbounds [150 x i8], [150 x i8]* @input, i64 0, i64 %81
  %83 = load i8, i8* %82, align 1
  %84 = sext i8 %83 to i32
  %85 = icmp eq i32 %84, 41
  br i1 %85, label %86, label %89

86:                                               ; preds = %79
  %87 = load i32, i32* %5, align 4
  %88 = add nsw i32 %87, 1
  store i32 %88, i32* %5, align 4
  br label %89

89:                                               ; preds = %86, %79
  br label %90

90:                                               ; preds = %89, %78
  br label %91

91:                                               ; preds = %90
  %92 = load i32, i32* %6, align 4
  %93 = add nsw i32 %92, -1
  store i32 %93, i32* %6, align 4
  br label %58

94:                                               ; preds = %58
  %95 = call i32 (i8*, ...) @printf(i8* getelementptr inbounds ([7 x i8], [7 x i8]* @.str.2, i64 0, i64 0), i8* getelementptr inbounds ([150 x i8], [150 x i8]* @input, i64 0, i64 0), i8* getelementptr inbounds ([150 x i8], [150 x i8]* @output, i64 0, i64 0))
  br label %96

96:                                               ; preds = %94
  %97 = load i32, i32* %3, align 4
  %98 = add nsw i32 %97, 1
  store i32 %98, i32* %3, align 4
  br label %8

99:                                               ; preds = %8
  ret i32 0
}

declare dso_local i32 @__isoc99_scanf(i8*, ...) #1

; Function Attrs: argmemonly nounwind willreturn
declare void @llvm.memset.p0i8.i64(i8* nocapture writeonly, i8, i64, i1 immarg) #2

; Function Attrs: nounwind readonly
declare dso_local i64 @strlen(i8*) #3

declare dso_local i32 @printf(i8*, ...) #1


!llvm.module.flags = !{!0}
!llvm.ident = !{!1}

!0 = !{i32 1, !"wchar_size", i32 4}
!1 = !{!"clang version 10.0.0-4ubuntu1 "}
